target datalayout = "e-m:e-p270:32:32-p271:32:32-p272:64:64-i64:64-i128:128-f80:128-n8:16:32:64-S128"
target triple = "x86_64-pc-linux-gnu"

%struct.expert_field = type { i32, i32 }
%struct.ext_value_string_t = type { i32, ptr, i32 }

@ansi_a_elem_1_strings = global ptr null, align 8
@.str.282 = private unnamed_addr constant [1 x i8] zeroinitializer, align 1
@ei_ansi_a_extraneous_data = internal global %struct.expert_field zeroinitializer, align 4
@ei_ansi_a_missing_mand_elem = internal global %struct.expert_field zeroinitializer, align 4
@.str.1753 = private unnamed_addr constant [71 x i8] c"Missing Mandatory element (0x%02x) %s%s, rest of dissection is suspect\00", align 1

; Function Attrs: null_pointer_is_valid sspstrong uwtable
define internal void @bsmap_clr_req(ptr noundef %0, ptr noundef %1, ptr noundef %2, i32 noundef %3, i32 noundef %4, ptr noundef %5) #1 {
  %7 = alloca ptr, align 8
  %8 = alloca ptr, align 8
  %9 = alloca ptr, align 8
  %10 = alloca i32, align 4
  %11 = alloca i32, align 4
  %12 = alloca ptr, align 8
  %13 = alloca i16, align 2
  %14 = alloca i32, align 4
  %15 = alloca i32, align 4
  %16 = alloca i32, align 4
  store ptr %0, ptr %7, align 8
  store ptr %1, ptr %8, align 8
  store ptr %2, ptr %9, align 8
  store i32 %3, ptr %10, align 4
  store i32 %4, ptr %11, align 4
  store ptr %5, ptr %12, align 8
  call void @llvm.lifetime.start.p0(i64 2, ptr %13) #8
  call void @llvm.lifetime.start.p0(i64 4, ptr %14) #8
  call void @llvm.lifetime.start.p0(i64 4, ptr %15) #8
  %17 = load i32, ptr %10, align 4
  store i32 %17, ptr %14, align 4
  %18 = load i32, ptr %11, align 4
  store i32 %18, ptr %15, align 4
  %19 = load ptr, ptr %7, align 8
  %20 = load ptr, ptr %8, align 8
  %21 = load ptr, ptr %9, align 8
  %22 = load i32, ptr %14, align 4
  %23 = load i32, ptr %15, align 4
  %24 = load ptr, ptr %12, align 8
  %25 = call zeroext i16 @elem_tlv(ptr noundef %19, ptr noundef %20, ptr noundef %21, i32 noundef 15, i32 noundef %22, i32 noundef %23, ptr noundef @.str.282, ptr noundef %24)
  store i16 %25, ptr %13, align 2
  %26 = zext i16 %25 to i32
  %27 = icmp sgt i32 %26, 0
  br i1 %27, label %28, label %37

28:                                               ; preds = %6
  %29 = load i16, ptr %13, align 2
  %30 = zext i16 %29 to i32
  %31 = load i32, ptr %14, align 4
  %32 = add i32 %31, %30
  store i32 %32, ptr %14, align 4
  %33 = load i16, ptr %13, align 2
  %34 = zext i16 %33 to i32
  %35 = load i32, ptr %15, align 4
  %36 = sub i32 %35, %34
  store i32 %36, ptr %15, align 4
  br label %51

37:                                               ; preds = %6
  %38 = load ptr, ptr %9, align 8
  %39 = load ptr, ptr %8, align 8
  %40 = load ptr, ptr %7, align 8
  %41 = load i32, ptr %14, align 4
  %42 = load ptr, ptr @ansi_a_elem_1_strings, align 8
  %43 = getelementptr %struct.ext_value_string_t, ptr %42, i64 15
  %44 = getelementptr inbounds nuw %struct.ext_value_string_t, ptr %43, i32 0, i32 0
  %45 = load i32, ptr %44, align 8
  %46 = load ptr, ptr @ansi_a_elem_1_strings, align 8
  %47 = getelementptr %struct.ext_value_string_t, ptr %46, i64 15
  %48 = getelementptr inbounds nuw %struct.ext_value_string_t, ptr %47, i32 0, i32 1
  %49 = load ptr, ptr %48, align 8
  %50 = call ptr (ptr, ptr, ptr, ptr, i32, i32, ptr, ...) @proto_tree_add_expert_format(ptr noundef %38, ptr noundef %39, ptr noundef @ei_ansi_a_missing_mand_elem, ptr noundef %40, i32 noundef %41, i32 noundef 0, ptr noundef @.str.1753, i32 noundef %45, ptr noundef %49, ptr noundef @.str.282)
  br label %51

51:                                               ; preds = %37, %28
  %52 = load i32, ptr %15, align 4
  %53 = icmp ule i32 %52, 0
  br i1 %53, label %54, label %55

54:                                               ; preds = %51
  store i32 1, ptr %16, align 4
  br label %94

55:                                               ; preds = %51
  %56 = load ptr, ptr %7, align 8
  %57 = load ptr, ptr %8, align 8
  %58 = load ptr, ptr %9, align 8
  %59 = load i32, ptr %14, align 4
  %60 = load i32, ptr %15, align 4
  %61 = load ptr, ptr %12, align 8
  %62 = call zeroext i16 @elem_tlv(ptr noundef %56, ptr noundef %57, ptr noundef %58, i32 noundef 16, i32 noundef %59, i32 noundef %60, ptr noundef @.str.282, ptr noundef %61)
  store i16 %62, ptr %13, align 2
  %63 = zext i16 %62 to i32
  %64 = icmp sgt i32 %63, 0
  br i1 %64, label %65, label %74

65:                                               ; preds = %55
  %66 = load i16, ptr %13, align 2
  %67 = zext i16 %66 to i32
  %68 = load i32, ptr %14, align 4
  %69 = add i32 %68, %67
  store i32 %69, ptr %14, align 4
  %70 = load i16, ptr %13, align 2
  %71 = zext i16 %70 to i32
  %72 = load i32, ptr %15, align 4
  %73 = sub i32 %72, %71
  store i32 %73, ptr %15, align 4
  br label %74

74:                                               ; preds = %65, %55
  %75 = load i32, ptr %15, align 4
  %76 = icmp ule i32 %75, 0
  br i1 %76, label %77, label %78

77:                                               ; preds = %74
  store i32 1, ptr %16, align 4
  br label %94

78:                                               ; preds = %74
  %79 = load i32, ptr %15, align 4
  %80 = icmp ugt i32 %79, 0
  br i1 %80, label %81, label %93

81:                                               ; preds = %78
  %82 = load ptr, ptr %9, align 8
  %83 = load ptr, ptr %8, align 8
  %84 = load ptr, ptr %7, align 8
  %85 = load i32, ptr %14, align 4
  %86 = load i32, ptr %15, align 4
  %87 = sub i32 %86, 0
  %88 = call ptr @proto_tree_add_expert(ptr noundef %82, ptr noundef %83, ptr noundef @ei_ansi_a_extraneous_data, ptr noundef %84, i32 noundef %85, i32 noundef %87)
  %89 = load i32, ptr %15, align 4
  %90 = sub i32 %89, 0
  %91 = load i32, ptr %14, align 4
  %92 = add i32 %91, %90
  store i32 %92, ptr %14, align 4
  br label %93

93:                                               ; preds = %81, %78
  store i32 0, ptr %16, align 4
  br label %94

94:                                               ; preds = %93, %77, %54
  call void @llvm.lifetime.end.p0(i64 4, ptr %15) #8
  call void @llvm.lifetime.end.p0(i64 4, ptr %14) #8
  call void @llvm.lifetime.end.p0(i64 2, ptr %13) #8
  %95 = load i32, ptr %16, align 4
  switch i32 %95, label %97 [
    i32 0, label %96
    i32 1, label %96
  ]

96:                                               ; preds = %94, %94
  ret void

97:                                               ; preds = %94
  unreachable
}