; Function Attrs: null_pointer_is_valid sspstrong uwtable
define internal void @bsmap_clr_req(ptr noundef %0, ptr noundef %1, ptr noundef %2, i32 noundef %3, i32 noundef %4, ptr noundef %5) #1 {
  %7 = tail call fastcc zeroext i16 @elem_tlv(ptr noundef %0, ptr noundef %1, ptr noundef %2, i32 noundef 15, i32 noundef %3, ptr noundef nonnull @.str.282, ptr noundef %5)
  %.not = icmp eq i16 %7, 0
  br i1 %.not, label %12, label %8

8:                                                ; preds = %6
  %9 = zext i16 %7 to i32
  %10 = add i32 %3, %9
  %11 = sub i32 %4, %9
  br label %19

12:                                               ; preds = %6
  %13 = load ptr, ptr @ansi_a_elem_1_strings, align 8
  %14 = getelementptr i8, ptr %13, i64 360
  %15 = load i32, ptr %14, align 8
  %16 = getelementptr i8, ptr %13, i64 368
  %17 = load ptr, ptr %16, align 8
  %18 = tail call ptr (ptr, ptr, ptr, ptr, i32, i32, ptr, ...) @proto_tree_add_expert_format(ptr noundef %2, ptr noundef %1, ptr noundef nonnull @ei_ansi_a_missing_mand_elem, ptr noundef %0, i32 noundef %3, i32 noundef 0, ptr noundef nonnull @.str.1753, i32 noundef %15, ptr noundef %17, ptr noundef nonnull @.str.282)
  br label %19

19:                                               ; preds = %12, %8
  %.035 = phi i32 [ %10, %8 ], [ %3, %12 ]
  %.0 = phi i32 [ %11, %8 ], [ %4, %12 ]
  %20 = icmp eq i32 %.0, 0
  br i1 %20, label %29, label %21

21:                                               ; preds = %19
  %22 = tail call fastcc zeroext i16 @elem_tlv(ptr noundef %0, ptr noundef %1, ptr noundef %2, i32 noundef 16, i32 noundef %.035, ptr noundef nonnull @.str.282, ptr noundef %5)
  %23 = zext i16 %22 to i32
  %24 = icmp eq i32 %.0, %23
  br i1 %24, label %29, label %25

25:                                               ; preds = %21
  %26 = sub i32 %.0, %23
  %27 = add i32 %.035, %23
  %28 = tail call ptr @proto_tree_add_expert(ptr noundef %2, ptr noundef %1, ptr noundef nonnull @ei_ansi_a_extraneous_data, ptr noundef %0, i32 noundef %27, i32 noundef %26)
  br label %29

29:                                               ; preds = %21, %19, %25
  ret void
}